Certificate:
    Data:
        Version: 3 (0x2)
        Serial Number: 4096 (0x1000)
    Signature Algorithm: sha1WithRSAEncryption
        Issuer: C=US, O=xunta.local, CN=lab-rhevmanager-0002.xunta.local.86453
        Validity
            Not Before: Jul  4 15:55:02 2017 GMT
            Not After : Jul  3 15:55:02 2027 GMT
        Subject: C=US, O=xunta.local, CN=lab-rhevmanager-0002.xunta.local.86453
        Subject Public Key Info:
            Public Key Algorithm: rsaEncryption
                Public-Key: (2048 bit)
                Modulus:
                    00:e6:4f:64:25:cd:d8:b4:70:3c:cc:c7:18:06:01:
                    a1:47:90:0b:58:14:0a:42:61:01:62:d1:33:89:87:
                    10:9e:e7:f2:f8:7c:58:9e:11:eb:c6:ba:36:c9:82:
                    20:9e:ce:b0:43:b9:ee:a6:8f:cd:ac:f4:19:bb:bf:
                    0d:ec:81:be:f3:95:23:6b:b3:98:1f:fc:b1:94:09:
                    64:9f:57:e6:e2:bb:42:42:d0:99:06:91:04:7e:45:
                    fc:c5:ba:e1:b2:3e:19:10:a8:c3:d4:87:97:ba:d7:
                    38:d4:3b:80:ec:54:af:21:69:16:9a:02:a6:dc:78:
                    b0:06:4d:82:60:cb:ff:21:0b:98:94:a1:db:a1:4f:
                    96:d9:a9:d4:68:62:ea:0a:89:89:55:0f:5d:5c:fe:
                    e6:44:b3:40:5a:a3:68:4d:b0:30:c2:7f:b0:6d:37:
                    02:06:9b:24:e0:9a:09:6b:4f:b9:aa:0c:c7:06:8a:
                    2e:5e:64:3c:91:e8:91:4f:00:29:39:19:c4:01:c5:
                    6b:98:b8:b8:f7:35:a2:7f:6e:8b:97:43:ff:11:23:
                    ec:9e:29:d4:8d:fe:94:0e:62:50:6d:42:95:7d:15:
                    14:0b:90:e7:f5:26:dd:33:6a:83:b6:b6:c8:54:f6:
                    30:e9:fb:0b:95:06:34:89:c4:8d:d9:fd:91:02:6c:
                    c7:c9
                Exponent: 65537 (0x10001)
        X509v3 extensions:
            X509v3 Subject Key Identifier: 
                4C:14:61:46:CF:DF:8C:1C:E9:3A:27:53:D1:F9:DD:19:75:04:94:0B
            X509v3 Authority Key Identifier: 
                keyid:4C:14:61:46:CF:DF:8C:1C:E9:3A:27:53:D1:F9:DD:19:75:04:94:0B
                DirName:/C=US/O=xunta.local/CN=lab-rhevmanager-0002.xunta.local.86453
                serial:10:00

            X509v3 Basic Constraints: critical
                CA:TRUE
            X509v3 Key Usage: critical
                Certificate Sign, CRL Sign
    Signature Algorithm: sha1WithRSAEncryption
         37:cd:80:33:b5:df:8b:e7:bf:36:6d:ed:44:f4:7d:b1:e3:f2:
         27:f4:18:e6:01:36:a7:c8:f0:93:21:67:78:2b:58:b2:33:ed:
         c7:4e:08:d3:f2:15:44:cb:b9:c7:2e:6d:e6:3f:ad:20:28:9a:
         fb:47:89:6e:29:a8:1c:9a:38:0b:84:a4:29:4d:84:5c:78:a7:
         a3:e1:23:a4:87:56:4c:83:30:b1:97:f3:3f:7e:86:ba:7b:86:
         88:11:34:cb:f2:a6:35:4b:ca:9b:87:9e:08:d1:03:64:e8:13:
         1e:bb:13:9a:22:b3:58:13:b4:8e:fa:5e:94:35:e9:52:a5:8d:
         c9:b0:23:a9:dc:3b:a6:73:ef:75:f2:45:e9:2b:44:49:25:e0:
         be:97:49:51:ce:62:07:4a:3e:39:bb:c7:ef:dc:68:4b:95:2a:
         6c:e1:8e:df:1f:15:5b:fe:52:b9:08:9f:b0:f1:2c:54:ff:d3:
         e4:00:5f:96:1a:3c:f1:89:2f:f0:fe:78:86:b8:a2:8f:6d:ae:
         60:9c:1b:7f:3d:bd:5c:93:63:5f:55:5d:b1:37:d6:28:16:3e:
         58:63:50:46:ad:6c:3d:54:5a:57:88:74:73:d2:1e:85:96:4a:
         bf:86:28:2e:97:15:33:14:36:5a:c5:f4:77:fb:c6:aa:9f:a3:
         fb:7c:c2:ed
-----BEGIN CERTIFICATE-----
MIID5zCCAs+gAwIBAgICEAAwDQYJKoZIhvcNAQEFBQAwVDELMAkGA1UEBhMCVVMx
FDASBgNVBAoTC3h1bnRhLmxvY2FsMS8wLQYDVQQDEyZsYWItcmhldm1hbmFnZXIt
MDAwMi54dW50YS5sb2NhbC44NjQ1MzAeFw0xNzA3MDQxNTU1MDJaFw0yNzA3MDMx
NTU1MDJaMFQxCzAJBgNVBAYTAlVTMRQwEgYDVQQKEwt4dW50YS5sb2NhbDEvMC0G
A1UEAxMmbGFiLXJoZXZtYW5hZ2VyLTAwMDIueHVudGEubG9jYWwuODY0NTMwggEi
MA0GCSqGSIb3DQEBAQUAA4IBDwAwggEKAoIBAQDmT2Qlzdi0cDzMxxgGAaFHkAtY
FApCYQFi0TOJhxCe5/L4fFieEevGujbJgiCezrBDue6mj82s9Bm7vw3sgb7zlSNr
s5gf/LGUCWSfV+biu0JC0JkGkQR+RfzFuuGyPhkQqMPUh5e61zjUO4DsVK8haRaa
AqbceLAGTYJgy/8hC5iUoduhT5bZqdRoYuoKiYlVD11c/uZEs0Bao2hNsDDCf7Bt
NwIGmyTgmglrT7mqDMcGii5eZDyR6JFPACk5GcQBxWuYuLj3NaJ/bouXQ/8RI+ye
KdSN/pQOYlBtQpV9FRQLkOf1Jt0zaoO2tshU9jDp+wuVBjSJxI3Z/ZECbMfJAgMB
AAGjgcIwgb8wHQYDVR0OBBYEFEwUYUbP34wc6TonU9H53Rl1BJQLMH0GA1UdIwR2
MHSAFEwUYUbP34wc6TonU9H53Rl1BJQLoVikVjBUMQswCQYDVQQGEwJVUzEUMBIG
A1UEChMLeHVudGEubG9jYWwxLzAtBgNVBAMTJmxhYi1yaGV2bWFuYWdlci0wMDAy
Lnh1bnRhLmxvY2FsLjg2NDUzggIQADAPBgNVHRMBAf8EBTADAQH/MA4GA1UdDwEB
/wQEAwIBBjANBgkqhkiG9w0BAQUFAAOCAQEAN82AM7Xfi+e/Nm3tRPR9sePyJ/QY
5gE2p8jwkyFneCtYsjPtx04I0/IVRMu5xy5t5j+tICia+0eJbimoHJo4C4SkKU2E
XHino+EjpIdWTIMwsZfzP36GunuGiBE0y/KmNUvKm4eeCNEDZOgTHrsTmiKzWBO0
jvpelDXpUqWNybAjqdw7pnPvdfJF6StESSXgvpdJUc5iB0o+ObvH79xoS5UqbOGO
3x8VW/5SuQifsPEsVP/T5ABflho88Ykv8P54hriij22uYJwbfz29XJNjX1VdsTfW
KBY+WGNQRq1sPVRaV4h0c9IehZZKv4YoLpcVMxQ2WsX0d/vGqp+j+3zC7Q==
-----END CERTIFICATE-----
